target datalayout = "e-m:e-p270:32:32-p271:32:32-p272:64:64-i64:64-i128:128-f80:128-n8:16:32:64-S128"
target triple = "x86_64-pc-linux-gnu"

%"class.std::vector.17" = type { %"struct.std::_Vector_base.18" }
%"struct.std::_Vector_base.18" = type { %"struct.std::_Vector_base<const cvc5::internal::theory::arith::linear::Constraint *, std::allocator<const cvc5::internal::theory::arith::linear::Constraint *>>::_Vector_impl" }
%"struct.std::_Vector_base<const cvc5::internal::theory::arith::linear::Constraint *, std::allocator<const cvc5::internal::theory::arith::linear::Constraint *>>::_Vector_impl" = type { %"struct.std::_Vector_base<const cvc5::internal::theory::arith::linear::Constraint *, std::allocator<const cvc5::internal::theory::arith::linear::Constraint *>>::_Vector_impl_data" }
%"struct.std::_Vector_base<const cvc5::internal::theory::arith::linear::Constraint *, std::allocator<const cvc5::internal::theory::arith::linear::Constraint *>>::_Vector_impl_data" = type { ptr, ptr, ptr }
%"class.cvc5::internal::Rational" = type { %class.__gmp_expr }
%class.__gmp_expr = type { [1 x %struct.__mpq_struct] }
%struct.__mpq_struct = type { %struct.__mpz_struct, %struct.__mpz_struct }
%struct.__mpz_struct = type { i32, i32, ptr }
%"class.std::vector.268" = type { %"struct.std::_Vector_base.269" }
%"struct.std::_Vector_base.269" = type { %"struct.std::_Vector_base<cvc5::internal::Rational, std::allocator<cvc5::internal::Rational>>::_Vector_impl" }
%"struct.std::_Vector_base<cvc5::internal::Rational, std::allocator<cvc5::internal::Rational>>::_Vector_impl" = type { %"struct.std::_Vector_base<cvc5::internal::Rational, std::allocator<cvc5::internal::Rational>>::_Vector_impl_data" }
%"struct.std::_Vector_base<cvc5::internal::Rational, std::allocator<cvc5::internal::Rational>>::_Vector_impl_data" = type { ptr, ptr, ptr }
%"class.cvc5::internal::theory::arith::linear::FarkasConflictBuilder" = type <{ %"class.std::vector.268", %"class.std::vector.17", ptr, i8, i8, [6 x i8] }>

; Function Attrs: mustprogress nounwind uwtable
define linkonce_odr hidden void @_ZN10__gmp_exprIA1_12__mpq_structS1_ED2Ev(ptr noundef nonnull align 8 dereferenceable(32) %0) unnamed_addr #4 comdat align 2 personality ptr @__gxx_personality_v0 {
  %2 = alloca ptr, align 8
  store ptr %0, ptr %2, align 8, !tbaa !225
  %3 = load ptr, ptr %2, align 8
  %4 = getelementptr inbounds nuw %class.__gmp_expr, ptr %3, i32 0, i32 0
  %5 = getelementptr inbounds [1 x %struct.__mpq_struct], ptr %4, i64 0, i64 0
  invoke void @__gmpq_clear(ptr noundef %5)
          to label %6 unwind label %7

6:                                                ; preds = %1
  ret void

7:                                                ; preds = %1
  %8 = landingpad { ptr, i32 }
          catch ptr null
  %9 = extractvalue { ptr, i32 } %8, 0
  call void @__clang_call_terminate(ptr %9) #21
  unreachable
}

; Function Attrs: mustprogress nounwind uwtable
define linkonce_odr hidden noundef ptr @_ZNK10__gmp_exprIA1_12__mpq_structS1_E9get_mpq_tEv(ptr noundef nonnull align 8 dereferenceable(32) %0) #4 comdat align 2 {
  %2 = alloca ptr, align 8
  store ptr %0, ptr %2, align 8, !tbaa !225
  %3 = load ptr, ptr %2, align 8
  %4 = getelementptr inbounds nuw %class.__gmp_expr, ptr %3, i32 0, i32 0
  %5 = getelementptr inbounds [1 x %struct.__mpq_struct], ptr %4, i64 0, i64 0
  ret ptr %5
}

; Function Attrs: mustprogress nounwind uwtable
define linkonce_odr hidden void @_ZN4cvc58internal8RationalD2Ev(ptr noundef nonnull align 8 dereferenceable(32) %0) unnamed_addr #4 comdat align 2 {
  %2 = alloca ptr, align 8
  store ptr %0, ptr %2, align 8, !tbaa !97
  %3 = load ptr, ptr %2, align 8
  %4 = getelementptr inbounds nuw %"class.cvc5::internal::Rational", ptr %3, i32 0, i32 0
  call void @_ZN10__gmp_exprIA1_12__mpq_structS1_ED2Ev(ptr noundef nonnull align 8 dereferenceable(32) %4) #3
  ret void
}

; Function Attrs: mustprogress uwtable
define linkonce_odr hidden noundef zeroext i1 @_ZNK4cvc58internal8Rational5isOneEv(ptr noundef nonnull align 8 dereferenceable(32) %0) #6 comdat align 2 {
  %2 = alloca ptr, align 8
  store ptr %0, ptr %2, align 8, !tbaa !97
  %3 = load ptr, ptr %2, align 8
  %4 = getelementptr inbounds nuw %"class.cvc5::internal::Rational", ptr %3, i32 0, i32 0
  %5 = call noundef ptr @_ZNK10__gmp_exprIA1_12__mpq_structS1_E9get_mpq_tEv(ptr noundef nonnull align 8 dereferenceable(32) %4)
  %6 = getelementptr inbounds nuw %struct.__mpq_struct, ptr %5, i32 0, i32 0
  %7 = getelementptr inbounds nuw %"class.cvc5::internal::Rational", ptr %3, i32 0, i32 0
  %8 = call noundef ptr @_ZNK10__gmp_exprIA1_12__mpq_structS1_E9get_mpq_tEv(ptr noundef nonnull align 8 dereferenceable(32) %7)
  %9 = getelementptr inbounds nuw %struct.__mpq_struct, ptr %8, i32 0, i32 1
  %10 = call i32 @__gmpz_cmp(ptr noundef %6, ptr noundef %9) #23
  %11 = icmp eq i32 %10, 0
  ret i1 %11
}

; Function Attrs: mustprogress uwtable
define hidden void @_ZN4cvc58internal6theory5arith6linear21FarkasConflictBuilder13addConstraintEPKNS3_10ConstraintERKNS0_8RationalESA_(ptr noundef nonnull align 8 dereferenceable(58) %0, ptr noundef %1, ptr noundef nonnull align 8 dereferenceable(32) %2, ptr noundef nonnull align 8 dereferenceable(32) %3) #6 align 2 personality ptr @__gxx_personality_v0 {
  %5 = alloca ptr, align 8
  %6 = alloca ptr, align 8
  %7 = alloca ptr, align 8
  %8 = alloca ptr, align 8
  %9 = alloca %"class.cvc5::internal::Rational", align 8
  %10 = alloca ptr, align 8
  %11 = alloca i32, align 4
  store ptr %0, ptr %5, align 8, !tbaa !69
  store ptr %1, ptr %6, align 8, !tbaa !63
  store ptr %2, ptr %7, align 8, !tbaa !97
  store ptr %3, ptr %8, align 8, !tbaa !97
  %12 = load ptr, ptr %5, align 8
  %13 = getelementptr inbounds nuw %"class.cvc5::internal::theory::arith::linear::FarkasConflictBuilder", ptr %12, i32 0, i32 4
  %14 = load i8, ptr %13, align 1, !tbaa !88, !range !86, !noundef !87
  %15 = trunc i8 %14 to i1
  br i1 %15, label %16, label %28

16:                                               ; preds = %4
  %17 = load ptr, ptr %8, align 8, !tbaa !97
  %18 = call noundef zeroext i1 @_ZNK4cvc58internal8Rational5isOneEv(ptr noundef nonnull align 8 dereferenceable(32) %17)
  br i1 %18, label %28, label %19

19:                                               ; preds = %16
  call void @llvm.lifetime.start.p0(i64 32, ptr %9) #3
  %20 = load ptr, ptr %7, align 8, !tbaa !97
  %21 = load ptr, ptr %8, align 8, !tbaa !97
  call void @_ZNK4cvc58internal8RationalmlERKS1_(ptr dead_on_unwind writable sret(%"class.cvc5::internal::Rational") align 8 %9, ptr noundef nonnull align 8 dereferenceable(32) %20, ptr noundef nonnull align 8 dereferenceable(32) %21)
  %22 = load ptr, ptr %6, align 8, !tbaa !63
  invoke void @_ZN4cvc58internal6theory5arith6linear21FarkasConflictBuilder13addConstraintEPKNS3_10ConstraintERKNS0_8RationalE(ptr noundef nonnull align 8 dereferenceable(58) %12, ptr noundef %22, ptr noundef nonnull align 8 dereferenceable(32) %9)
          to label %23 unwind label %24

23:                                               ; preds = %19
  call void @_ZN4cvc58internal8RationalD2Ev(ptr noundef nonnull align 8 dereferenceable(32) %9) #3
  call void @llvm.lifetime.end.p0(i64 32, ptr %9) #3
  br label %31

24:                                               ; preds = %19
  %25 = landingpad { ptr, i32 }
          cleanup
  %26 = extractvalue { ptr, i32 } %25, 0
  store ptr %26, ptr %10, align 8
  %27 = extractvalue { ptr, i32 } %25, 1
  store i32 %27, ptr %11, align 4
  call void @_ZN4cvc58internal8RationalD2Ev(ptr noundef nonnull align 8 dereferenceable(32) %9) #3
  call void @llvm.lifetime.end.p0(i64 32, ptr %9) #3
  br label %32

28:                                               ; preds = %16, %4
  %29 = load ptr, ptr %6, align 8, !tbaa !63
  %30 = load ptr, ptr %7, align 8, !tbaa !97
  call void @_ZN4cvc58internal6theory5arith6linear21FarkasConflictBuilder13addConstraintEPKNS3_10ConstraintERKNS0_8RationalE(ptr noundef nonnull align 8 dereferenceable(58) %12, ptr noundef %29, ptr noundef nonnull align 8 dereferenceable(32) %30)
  br label %31

31:                                               ; preds = %28, %23
  ret void

32:                                               ; preds = %24
  %33 = load ptr, ptr %10, align 8
  %34 = load i32, ptr %11, align 4
  %35 = insertvalue { ptr, i32 } poison, ptr %33, 0
  %36 = insertvalue { ptr, i32 } %35, i32 %34, 1
  resume { ptr, i32 } %36
}