; Function Attrs: mustprogress uwtable
define hidden void @_ZN4cvc58internal6theory5arith6linear21FarkasConflictBuilder13addConstraintEPKNS3_10ConstraintERKNS0_8RationalESA_(ptr noundef nonnull align 8 dereferenceable(58) %0, ptr noundef %1, ptr noundef nonnull align 8 dereferenceable(32) %2, ptr noundef nonnull align 8 dereferenceable(32) %3) local_unnamed_addr #4 align 2 personality ptr @__gxx_personality_v0 {
  %5 = alloca %"class.cvc5::internal::Rational", align 8
  %6 = getelementptr inbounds nuw i8, ptr %0, i64 57
  %7 = load i8, ptr %6, align 1, !tbaa !68, !range !86, !noundef !87
  %8 = trunc nuw i8 %7 to i1
  br i1 %8, label %9, label %23

9:                                                ; preds = %4
  %10 = getelementptr inbounds nuw i8, ptr %3, i64 16
  %11 = tail call i32 @__gmpz_cmp(ptr noundef nonnull align 8 dereferenceable(32) %3, ptr noundef nonnull %10) #27
  %12 = icmp eq i32 %11, 0
  br i1 %12, label %23, label %13

13:                                               ; preds = %9
  call void @llvm.lifetime.start.p0(i64 32, ptr nonnull %5) #23
  call void @_ZNK4cvc58internal8RationalmlERKS1_(ptr dead_on_unwind nonnull writable sret(%"class.cvc5::internal::Rational") align 8 %5, ptr noundef nonnull align 8 dereferenceable(32) %2, ptr noundef nonnull align 8 dereferenceable(32) %3)
  invoke void @_ZN4cvc58internal6theory5arith6linear21FarkasConflictBuilder13addConstraintEPKNS3_10ConstraintERKNS0_8RationalE(ptr noundef nonnull align 8 dereferenceable(58) %0, ptr noundef %1, ptr noundef nonnull align 8 dereferenceable(32) %5)
          to label %14 unwind label %18

14:                                               ; preds = %13
  invoke void @__gmpq_clear(ptr noundef nonnull align 8 dereferenceable(32) %5)
          to label %_ZN4cvc58internal8RationalD2Ev.exit unwind label %15

15:                                               ; preds = %14
  %16 = landingpad { ptr, i32 }
          catch ptr null
  %17 = extractvalue { ptr, i32 } %16, 0
  call void @__clang_call_terminate(ptr %17) #22
  unreachable

_ZN4cvc58internal8RationalD2Ev.exit:              ; preds = %14
  call void @llvm.lifetime.end.p0(i64 32, ptr nonnull %5) #23
  br label %24

18:                                               ; preds = %13
  %19 = landingpad { ptr, i32 }
          cleanup
  invoke void @__gmpq_clear(ptr noundef nonnull align 8 dereferenceable(32) %5)
          to label %_ZN4cvc58internal8RationalD2Ev.exit8 unwind label %20

20:                                               ; preds = %18
  %21 = landingpad { ptr, i32 }
          catch ptr null
  %22 = extractvalue { ptr, i32 } %21, 0
  call void @__clang_call_terminate(ptr %22) #22
  unreachable

_ZN4cvc58internal8RationalD2Ev.exit8:             ; preds = %18
  call void @llvm.lifetime.end.p0(i64 32, ptr nonnull %5) #23
  resume { ptr, i32 } %19

23:                                               ; preds = %9, %4
  tail call void @_ZN4cvc58internal6theory5arith6linear21FarkasConflictBuilder13addConstraintEPKNS3_10ConstraintERKNS0_8RationalE(ptr noundef nonnull align 8 dereferenceable(58) %0, ptr noundef %1, ptr noundef nonnull align 8 dereferenceable(32) %2)
  br label %24

24:                                               ; preds = %23, %_ZN4cvc58internal8RationalD2Ev.exit
  ret void
}